target datalayout = "e-m:e-p270:32:32-p271:32:32-p272:64:64-i64:64-i128:128-f80:128-n8:16:32:64-S128"
target triple = "x86_64-pc-linux-gnu"

%struct.ossl_cc_newreno_st = type { ptr, ptr, i64, i64, i32, i32, i32, i64, i64, i64, i64, i64, %struct.OSSL_TIME, i32, %struct.OSSL_TIME, i32, ptr, ptr, ptr, ptr, ptr }
%struct.OSSL_TIME = type { i64 }

@.str = private unnamed_addr constant [33 x i8] c"../openssl/ssl/quic/cc_newreno.c\00", align 1

; Function Attrs: inlinehint nounwind uwtable
define internal i64 @ossl_ticks2time(i64 noundef %0) #3 {
  %2 = alloca %struct.OSSL_TIME, align 8
  %3 = alloca i64, align 8
  store i64 %0, ptr %3, align 8, !tbaa !28
  %4 = load i64, ptr %3, align 8, !tbaa !28
  %5 = getelementptr inbounds nuw %struct.OSSL_TIME, ptr %2, i32 0, i32 0
  store i64 %4, ptr %5, align 8, !tbaa !53
  %6 = getelementptr inbounds nuw %struct.OSSL_TIME, ptr %2, i32 0, i32 0
  %7 = load i64, ptr %6, align 8
  ret i64 %7
}

; Function Attrs: inlinehint nounwind uwtable
define internal i64 @ossl_time_zero() #3 {
  %1 = alloca %struct.OSSL_TIME, align 8
  %2 = call i64 @ossl_ticks2time(i64 noundef 0)
  %3 = getelementptr inbounds nuw %struct.OSSL_TIME, ptr %1, i32 0, i32 0
  store i64 %2, ptr %3, align 8
  %4 = getelementptr inbounds nuw %struct.OSSL_TIME, ptr %1, i32 0, i32 0
  %5 = load i64, ptr %4, align 8
  ret i64 %5
}

; Function Attrs: nounwind uwtable
define internal void @newreno_update_diag(ptr noundef %0) #0 {
  %2 = alloca ptr, align 8
  store ptr %0, ptr %2, align 8, !tbaa !7
  %3 = load ptr, ptr %2, align 8, !tbaa !7
  %4 = getelementptr inbounds nuw %struct.ossl_cc_newreno_st, ptr %3, i32 0, i32 16
  %5 = load ptr, ptr %4, align 8, !tbaa !34
  %6 = icmp ne ptr %5, null
  br i1 %6, label %7, label %14

7:                                                ; preds = %1
  %8 = load ptr, ptr %2, align 8, !tbaa !7
  %9 = getelementptr inbounds nuw %struct.ossl_cc_newreno_st, ptr %8, i32 0, i32 7
  %10 = load i64, ptr %9, align 8, !tbaa !44
  %11 = load ptr, ptr %2, align 8, !tbaa !7
  %12 = getelementptr inbounds nuw %struct.ossl_cc_newreno_st, ptr %11, i32 0, i32 16
  %13 = load ptr, ptr %12, align 8, !tbaa !34
  store i64 %10, ptr %13, align 8, !tbaa !28
  br label %14

14:                                               ; preds = %7, %1
  %15 = load ptr, ptr %2, align 8, !tbaa !7
  %16 = getelementptr inbounds nuw %struct.ossl_cc_newreno_st, ptr %15, i32 0, i32 17
  %17 = load ptr, ptr %16, align 8, !tbaa !35
  %18 = icmp ne ptr %17, null
  br i1 %18, label %19, label %26

19:                                               ; preds = %14
  %20 = load ptr, ptr %2, align 8, !tbaa !7
  %21 = getelementptr inbounds nuw %struct.ossl_cc_newreno_st, ptr %20, i32 0, i32 9
  %22 = load i64, ptr %21, align 8, !tbaa !23
  %23 = load ptr, ptr %2, align 8, !tbaa !7
  %24 = getelementptr inbounds nuw %struct.ossl_cc_newreno_st, ptr %23, i32 0, i32 17
  %25 = load ptr, ptr %24, align 8, !tbaa !35
  store i64 %22, ptr %25, align 8, !tbaa !28
  br label %26

26:                                               ; preds = %19, %14
  %27 = load ptr, ptr %2, align 8, !tbaa !7
  %28 = getelementptr inbounds nuw %struct.ossl_cc_newreno_st, ptr %27, i32 0, i32 18
  %29 = load ptr, ptr %28, align 8, !tbaa !36
  %30 = icmp ne ptr %29, null
  br i1 %30, label %31, label %38

31:                                               ; preds = %26
  %32 = load ptr, ptr %2, align 8, !tbaa !7
  %33 = getelementptr inbounds nuw %struct.ossl_cc_newreno_st, ptr %32, i32 0, i32 3
  %34 = load i64, ptr %33, align 8, !tbaa !52
  %35 = load ptr, ptr %2, align 8, !tbaa !7
  %36 = getelementptr inbounds nuw %struct.ossl_cc_newreno_st, ptr %35, i32 0, i32 18
  %37 = load ptr, ptr %36, align 8, !tbaa !36
  store i64 %34, ptr %37, align 8, !tbaa !28
  br label %38

38:                                               ; preds = %31, %26
  %39 = load ptr, ptr %2, align 8, !tbaa !7
  %40 = getelementptr inbounds nuw %struct.ossl_cc_newreno_st, ptr %39, i32 0, i32 19
  %41 = load ptr, ptr %40, align 8, !tbaa !37
  %42 = icmp ne ptr %41, null
  br i1 %42, label %43, label %50

43:                                               ; preds = %38
  %44 = load ptr, ptr %2, align 8, !tbaa !7
  %45 = getelementptr inbounds nuw %struct.ossl_cc_newreno_st, ptr %44, i32 0, i32 8
  %46 = load i64, ptr %45, align 8, !tbaa !24
  %47 = load ptr, ptr %2, align 8, !tbaa !7
  %48 = getelementptr inbounds nuw %struct.ossl_cc_newreno_st, ptr %47, i32 0, i32 19
  %49 = load ptr, ptr %48, align 8, !tbaa !37
  store i64 %46, ptr %49, align 8, !tbaa !28
  br label %50

50:                                               ; preds = %43, %38
  %51 = load ptr, ptr %2, align 8, !tbaa !7
  %52 = getelementptr inbounds nuw %struct.ossl_cc_newreno_st, ptr %51, i32 0, i32 20
  %53 = load ptr, ptr %52, align 8, !tbaa !39
  %54 = icmp ne ptr %53, null
  br i1 %54, label %55, label %82

55:                                               ; preds = %50
  %56 = load ptr, ptr %2, align 8, !tbaa !7
  %57 = getelementptr inbounds nuw %struct.ossl_cc_newreno_st, ptr %56, i32 0, i32 15
  %58 = load i32, ptr %57, align 8, !tbaa !30
  %59 = icmp ne i32 %58, 0
  br i1 %59, label %60, label %64

60:                                               ; preds = %55
  %61 = load ptr, ptr %2, align 8, !tbaa !7
  %62 = getelementptr inbounds nuw %struct.ossl_cc_newreno_st, ptr %61, i32 0, i32 20
  %63 = load ptr, ptr %62, align 8, !tbaa !39
  store i32 82, ptr %63, align 4, !tbaa !49
  br label %81

64:                                               ; preds = %55
  %65 = load ptr, ptr %2, align 8, !tbaa !7
  %66 = getelementptr inbounds nuw %struct.ossl_cc_newreno_st, ptr %65, i32 0, i32 9
  %67 = load i64, ptr %66, align 8, !tbaa !23
  %68 = load ptr, ptr %2, align 8, !tbaa !7
  %69 = getelementptr inbounds nuw %struct.ossl_cc_newreno_st, ptr %68, i32 0, i32 10
  %70 = load i64, ptr %69, align 8, !tbaa !26
  %71 = icmp ult i64 %67, %70
  br i1 %71, label %72, label %76

72:                                               ; preds = %64
  %73 = load ptr, ptr %2, align 8, !tbaa !7
  %74 = getelementptr inbounds nuw %struct.ossl_cc_newreno_st, ptr %73, i32 0, i32 20
  %75 = load ptr, ptr %74, align 8, !tbaa !39
  store i32 83, ptr %75, align 4, !tbaa !49
  br label %80

76:                                               ; preds = %64
  %77 = load ptr, ptr %2, align 8, !tbaa !7
  %78 = getelementptr inbounds nuw %struct.ossl_cc_newreno_st, ptr %77, i32 0, i32 20
  %79 = load ptr, ptr %78, align 8, !tbaa !39
  store i32 65, ptr %79, align 4, !tbaa !49
  br label %80

80:                                               ; preds = %76, %72
  br label %81

81:                                               ; preds = %80, %60
  br label %82

82:                                               ; preds = %81, %50
  ret void
}

; Function Attrs: nounwind uwtable
define internal void @newreno_reset(ptr noundef %0) #0 {
  %2 = alloca ptr, align 8
  %3 = alloca ptr, align 8
  %4 = alloca %struct.OSSL_TIME, align 8
  %5 = alloca %struct.OSSL_TIME, align 8
  store ptr %0, ptr %2, align 8, !tbaa !17
  call void @llvm.lifetime.start.p0(i64 8, ptr %3) #6
  %6 = load ptr, ptr %2, align 8, !tbaa !17
  store ptr %6, ptr %3, align 8, !tbaa !7
  %7 = load ptr, ptr %3, align 8, !tbaa !7
  %8 = getelementptr inbounds nuw %struct.ossl_cc_newreno_st, ptr %7, i32 0, i32 4
  store i32 1, ptr %8, align 8, !tbaa !19
  %9 = load ptr, ptr %3, align 8, !tbaa !7
  %10 = getelementptr inbounds nuw %struct.ossl_cc_newreno_st, ptr %9, i32 0, i32 5
  store i32 2, ptr %10, align 4, !tbaa !20
  %11 = load ptr, ptr %3, align 8, !tbaa !7
  %12 = getelementptr inbounds nuw %struct.ossl_cc_newreno_st, ptr %11, i32 0, i32 6
  store i32 3, ptr %12, align 8, !tbaa !21
  %13 = load ptr, ptr %3, align 8, !tbaa !7
  %14 = getelementptr inbounds nuw %struct.ossl_cc_newreno_st, ptr %13, i32 0, i32 2
  %15 = load i64, ptr %14, align 8, !tbaa !22
  %16 = load ptr, ptr %3, align 8, !tbaa !7
  %17 = getelementptr inbounds nuw %struct.ossl_cc_newreno_st, ptr %16, i32 0, i32 9
  store i64 %15, ptr %17, align 8, !tbaa !23
  %18 = load ptr, ptr %3, align 8, !tbaa !7
  %19 = getelementptr inbounds nuw %struct.ossl_cc_newreno_st, ptr %18, i32 0, i32 8
  store i64 0, ptr %19, align 8, !tbaa !24
  %20 = load ptr, ptr %3, align 8, !tbaa !7
  %21 = getelementptr inbounds nuw %struct.ossl_cc_newreno_st, ptr %20, i32 0, i32 11
  store i64 0, ptr %21, align 8, !tbaa !25
  %22 = load ptr, ptr %3, align 8, !tbaa !7
  %23 = getelementptr inbounds nuw %struct.ossl_cc_newreno_st, ptr %22, i32 0, i32 10
  store i64 -1, ptr %23, align 8, !tbaa !26
  %24 = load ptr, ptr %3, align 8, !tbaa !7
  %25 = getelementptr inbounds nuw %struct.ossl_cc_newreno_st, ptr %24, i32 0, i32 12
  call void @llvm.lifetime.start.p0(i64 8, ptr %4) #6
  %26 = call i64 @ossl_time_zero()
  %27 = getelementptr inbounds nuw %struct.OSSL_TIME, ptr %4, i32 0, i32 0
  store i64 %26, ptr %27, align 8
  call void @llvm.memcpy.p0.p0.i64(ptr align 8 %25, ptr align 8 %4, i64 8, i1 false), !tbaa.struct !27
  call void @llvm.lifetime.end.p0(i64 8, ptr %4) #6
  %28 = load ptr, ptr %3, align 8, !tbaa !7
  %29 = getelementptr inbounds nuw %struct.ossl_cc_newreno_st, ptr %28, i32 0, i32 13
  store i32 0, ptr %29, align 8, !tbaa !29
  %30 = load ptr, ptr %3, align 8, !tbaa !7
  %31 = getelementptr inbounds nuw %struct.ossl_cc_newreno_st, ptr %30, i32 0, i32 14
  call void @llvm.lifetime.start.p0(i64 8, ptr %5) #6
  %32 = call i64 @ossl_time_zero()
  %33 = getelementptr inbounds nuw %struct.OSSL_TIME, ptr %5, i32 0, i32 0
  store i64 %32, ptr %33, align 8
  call void @llvm.memcpy.p0.p0.i64(ptr align 8 %31, ptr align 8 %5, i64 8, i1 false), !tbaa.struct !27
  call void @llvm.lifetime.end.p0(i64 8, ptr %5) #6
  %34 = load ptr, ptr %3, align 8, !tbaa !7
  %35 = getelementptr inbounds nuw %struct.ossl_cc_newreno_st, ptr %34, i32 0, i32 15
  store i32 0, ptr %35, align 8, !tbaa !30
  call void @llvm.lifetime.end.p0(i64 8, ptr %3) #6
  ret void
}

; Function Attrs: nounwind uwtable
define internal void @newreno_set_max_dgram_size(ptr noundef %0, i64 noundef %1) #0 {
  %3 = alloca ptr, align 8
  %4 = alloca i64, align 8
  %5 = alloca i64, align 8
  %6 = alloca i32, align 4
  store ptr %0, ptr %3, align 8, !tbaa !7
  store i64 %1, ptr %4, align 8, !tbaa !28
  call void @llvm.lifetime.start.p0(i64 8, ptr %5) #6
  call void @llvm.lifetime.start.p0(i64 4, ptr %6) #6
  %7 = load i64, ptr %4, align 8, !tbaa !28
  %8 = load ptr, ptr %3, align 8, !tbaa !7
  %9 = getelementptr inbounds nuw %struct.ossl_cc_newreno_st, ptr %8, i32 0, i32 7
  %10 = load i64, ptr %9, align 8, !tbaa !44
  %11 = icmp ult i64 %7, %10
  %12 = zext i1 %11 to i32
  store i32 %12, ptr %6, align 4, !tbaa !49
  %13 = load i64, ptr %4, align 8, !tbaa !28
  %14 = load ptr, ptr %3, align 8, !tbaa !7
  %15 = getelementptr inbounds nuw %struct.ossl_cc_newreno_st, ptr %14, i32 0, i32 7
  store i64 %13, ptr %15, align 8, !tbaa !44
  %16 = load i64, ptr %4, align 8, !tbaa !28
  %17 = mul i64 2, %16
  store i64 %17, ptr %5, align 8, !tbaa !28
  %18 = load i64, ptr %5, align 8, !tbaa !28
  %19 = icmp ult i64 %18, 14720
  br i1 %19, label %20, label %21

20:                                               ; preds = %2
  store i64 14720, ptr %5, align 8, !tbaa !28
  br label %21

21:                                               ; preds = %20, %2
  %22 = load i64, ptr %4, align 8, !tbaa !28
  %23 = mul i64 10, %22
  %24 = load ptr, ptr %3, align 8, !tbaa !7
  %25 = getelementptr inbounds nuw %struct.ossl_cc_newreno_st, ptr %24, i32 0, i32 2
  store i64 %23, ptr %25, align 8, !tbaa !22
  %26 = load ptr, ptr %3, align 8, !tbaa !7
  %27 = getelementptr inbounds nuw %struct.ossl_cc_newreno_st, ptr %26, i32 0, i32 2
  %28 = load i64, ptr %27, align 8, !tbaa !22
  %29 = load i64, ptr %5, align 8, !tbaa !28
  %30 = icmp ugt i64 %28, %29
  br i1 %30, label %31, label %35

31:                                               ; preds = %21
  %32 = load i64, ptr %5, align 8, !tbaa !28
  %33 = load ptr, ptr %3, align 8, !tbaa !7
  %34 = getelementptr inbounds nuw %struct.ossl_cc_newreno_st, ptr %33, i32 0, i32 2
  store i64 %32, ptr %34, align 8, !tbaa !22
  br label %35

35:                                               ; preds = %31, %21
  %36 = load i64, ptr %4, align 8, !tbaa !28
  %37 = mul i64 2, %36
  %38 = load ptr, ptr %3, align 8, !tbaa !7
  %39 = getelementptr inbounds nuw %struct.ossl_cc_newreno_st, ptr %38, i32 0, i32 3
  store i64 %37, ptr %39, align 8, !tbaa !52
  %40 = load i32, ptr %6, align 4, !tbaa !49
  %41 = icmp ne i32 %40, 0
  br i1 %41, label %42, label %48

42:                                               ; preds = %35
  %43 = load ptr, ptr %3, align 8, !tbaa !7
  %44 = getelementptr inbounds nuw %struct.ossl_cc_newreno_st, ptr %43, i32 0, i32 2
  %45 = load i64, ptr %44, align 8, !tbaa !22
  %46 = load ptr, ptr %3, align 8, !tbaa !7
  %47 = getelementptr inbounds nuw %struct.ossl_cc_newreno_st, ptr %46, i32 0, i32 9
  store i64 %45, ptr %47, align 8, !tbaa !23
  br label %48

48:                                               ; preds = %42, %35
  %49 = load ptr, ptr %3, align 8, !tbaa !7
  call void @newreno_update_diag(ptr noundef %49)
  call void @llvm.lifetime.end.p0(i64 4, ptr %6) #6
  call void @llvm.lifetime.end.p0(i64 8, ptr %5) #6
  ret void
}

; Function Attrs: nounwind uwtable
define internal ptr @newreno_new(ptr noundef %0, ptr noundef %1) #0 {
  %3 = alloca ptr, align 8
  %4 = alloca ptr, align 8
  %5 = alloca ptr, align 8
  %6 = alloca ptr, align 8
  %7 = alloca i32, align 4
  store ptr %0, ptr %4, align 8, !tbaa !3
  store ptr %1, ptr %5, align 8, !tbaa !3
  call void @llvm.lifetime.start.p0(i64 8, ptr %6) #6
  %8 = call noalias ptr @CRYPTO_zalloc(i64 noundef 160, ptr noundef @.str, i32 noundef 52)
  store ptr %8, ptr %6, align 8, !tbaa !7
  %9 = icmp eq ptr %8, null
  br i1 %9, label %10, label %11

10:                                               ; preds = %2
  store ptr null, ptr %3, align 8
  store i32 1, ptr %7, align 4
  br label %21

11:                                               ; preds = %2
  %12 = load ptr, ptr %4, align 8, !tbaa !3
  %13 = load ptr, ptr %6, align 8, !tbaa !7
  %14 = getelementptr inbounds nuw %struct.ossl_cc_newreno_st, ptr %13, i32 0, i32 0
  store ptr %12, ptr %14, align 8, !tbaa !9
  %15 = load ptr, ptr %5, align 8, !tbaa !3
  %16 = load ptr, ptr %6, align 8, !tbaa !7
  %17 = getelementptr inbounds nuw %struct.ossl_cc_newreno_st, ptr %16, i32 0, i32 1
  store ptr %15, ptr %17, align 8, !tbaa !16
  %18 = load ptr, ptr %6, align 8, !tbaa !7
  call void @newreno_set_max_dgram_size(ptr noundef %18, i64 noundef 1200)
  %19 = load ptr, ptr %6, align 8, !tbaa !7
  call void @newreno_reset(ptr noundef %19)
  %20 = load ptr, ptr %6, align 8, !tbaa !7
  store ptr %20, ptr %3, align 8
  store i32 1, ptr %7, align 4
  br label %21

21:                                               ; preds = %11, %10
  call void @llvm.lifetime.end.p0(i64 8, ptr %6) #6
  %22 = load ptr, ptr %3, align 8
  ret ptr %22
}