; Function Attrs: nounwind uwtable
define internal noalias ptr @newreno_new(ptr noundef %0, ptr noundef %1) #0 {
  %3 = tail call noalias ptr @CRYPTO_zalloc(i64 noundef 160, ptr noundef nonnull @.str, i32 noundef 52) #8
  %4 = icmp eq ptr %3, null
  br i1 %4, label %57, label %5

5:                                                ; preds = %2
  store ptr %0, ptr %3, align 8, !tbaa !3
  %6 = getelementptr inbounds nuw i8, ptr %3, i64 8
  store ptr %1, ptr %6, align 8, !tbaa !13
  %7 = getelementptr inbounds nuw i8, ptr %3, i64 48
  %8 = load i64, ptr %7, align 8, !tbaa !14
  %9 = icmp ugt i64 %8, 1200
  store i64 1200, ptr %7, align 8, !tbaa !14
  %10 = getelementptr inbounds nuw i8, ptr %3, i64 16
  store i64 12000, ptr %10, align 8, !tbaa !15
  %11 = getelementptr inbounds nuw i8, ptr %3, i64 24
  store i64 2400, ptr %11, align 8, !tbaa !16
  br i1 %9, label %12, label %14

12:                                               ; preds = %5
  %13 = getelementptr inbounds nuw i8, ptr %3, i64 64
  store i64 12000, ptr %13, align 8, !tbaa !17
  br label %14

14:                                               ; preds = %12, %5
  %15 = getelementptr inbounds nuw i8, ptr %3, i64 120
  %16 = load ptr, ptr %15, align 8, !tbaa !18
  %.not.i.i = icmp eq ptr %16, null
  br i1 %.not.i.i, label %18, label %17

17:                                               ; preds = %14
  store i64 1200, ptr %16, align 8, !tbaa !19
  br label %18

18:                                               ; preds = %17, %14
  %19 = getelementptr inbounds nuw i8, ptr %3, i64 128
  %20 = load ptr, ptr %19, align 8, !tbaa !20
  %.not23.i.i = icmp eq ptr %20, null
  br i1 %.not23.i.i, label %24, label %21

21:                                               ; preds = %18
  %22 = getelementptr inbounds nuw i8, ptr %3, i64 64
  %23 = load i64, ptr %22, align 8, !tbaa !17
  store i64 %23, ptr %20, align 8, !tbaa !19
  br label %24

24:                                               ; preds = %21, %18
  %25 = getelementptr inbounds nuw i8, ptr %3, i64 136
  %26 = load ptr, ptr %25, align 8, !tbaa !21
  %.not24.i.i = icmp eq ptr %26, null
  br i1 %.not24.i.i, label %28, label %27

27:                                               ; preds = %24
  store i64 2400, ptr %26, align 8, !tbaa !19
  br label %28

28:                                               ; preds = %27, %24
  %29 = getelementptr inbounds nuw i8, ptr %3, i64 144
  %30 = load ptr, ptr %29, align 8, !tbaa !22
  %.not25.i.i = icmp eq ptr %30, null
  br i1 %.not25.i.i, label %34, label %31

31:                                               ; preds = %28
  %32 = getelementptr inbounds nuw i8, ptr %3, i64 56
  %33 = load i64, ptr %32, align 8, !tbaa !23
  store i64 %33, ptr %30, align 8, !tbaa !19
  br label %34

34:                                               ; preds = %31, %28
  %35 = getelementptr inbounds nuw i8, ptr %3, i64 152
  %36 = load ptr, ptr %35, align 8, !tbaa !24
  %.not26.i.i = icmp eq ptr %36, null
  br i1 %.not26.i.i, label %newreno_set_max_dgram_size.exit, label %37

37:                                               ; preds = %34
  %38 = getelementptr inbounds nuw i8, ptr %3, i64 112
  %39 = load i32, ptr %38, align 8, !tbaa !25
  %.not27.i.i = icmp eq i32 %39, 0
  br i1 %.not27.i.i, label %40, label %.sink.split.i.i

40:                                               ; preds = %37
  %41 = getelementptr inbounds nuw i8, ptr %3, i64 64
  %42 = load i64, ptr %41, align 8, !tbaa !17
  %43 = getelementptr inbounds nuw i8, ptr %3, i64 72
  %44 = load i64, ptr %43, align 8, !tbaa !26
  %45 = icmp ult i64 %42, %44
  %..i.i = select i1 %45, i32 83, i32 65
  br label %.sink.split.i.i

.sink.split.i.i:                                  ; preds = %40, %37
  %.sink.i.i = phi i32 [ 82, %37 ], [ %..i.i, %40 ]
  store i32 %.sink.i.i, ptr %36, align 4, !tbaa !27
  br label %newreno_set_max_dgram_size.exit

newreno_set_max_dgram_size.exit:                  ; preds = %34, %.sink.split.i.i
  %46 = getelementptr inbounds nuw i8, ptr %3, i64 32
  store i32 1, ptr %46, align 8, !tbaa !28
  %47 = getelementptr inbounds nuw i8, ptr %3, i64 36
  store i32 2, ptr %47, align 4, !tbaa !29
  %48 = getelementptr inbounds nuw i8, ptr %3, i64 40
  store i32 3, ptr %48, align 8, !tbaa !30
  %49 = getelementptr inbounds nuw i8, ptr %3, i64 64
  store i64 12000, ptr %49, align 8, !tbaa !17
  %50 = getelementptr inbounds nuw i8, ptr %3, i64 56
  store i64 0, ptr %50, align 8, !tbaa !23
  %51 = getelementptr inbounds nuw i8, ptr %3, i64 80
  store i64 0, ptr %51, align 8, !tbaa !31
  %52 = getelementptr inbounds nuw i8, ptr %3, i64 72
  store i64 -1, ptr %52, align 8, !tbaa !26
  %53 = getelementptr inbounds nuw i8, ptr %3, i64 88
  store i64 0, ptr %53, align 8, !tbaa !19
  %54 = getelementptr inbounds nuw i8, ptr %3, i64 96
  store i32 0, ptr %54, align 8, !tbaa !32
  %55 = getelementptr inbounds nuw i8, ptr %3, i64 104
  store i64 0, ptr %55, align 8, !tbaa !19
  %56 = getelementptr inbounds nuw i8, ptr %3, i64 112
  store i32 0, ptr %56, align 8, !tbaa !25
  br label %57

57:                                               ; preds = %2, %newreno_set_max_dgram_size.exit
  ret ptr %3
}